; Function Attrs: nounwind uwtable
define dso_local i32 @mallctlnametomib(ptr noundef %0, ptr noundef %1, ptr noundef %2) local_unnamed_addr #2 {
  %4 = load i32, ptr @je_malloc_init_state, align 4, !tbaa !4
  %5 = icmp eq i32 %4, 0
  br i1 %5, label %malloc_init.exit, label %6, !prof !10

6:                                                ; preds = %3
  %7 = tail call fastcc zeroext i1 @malloc_init_hard()
  br i1 %7, label %malloc_init.exit.thread, label %malloc_init.exit

malloc_init.exit:                                 ; preds = %6, %3
  %8 = tail call nonnull align 8 ptr @llvm.threadlocal.address.p0(ptr align 8 @je_tsd_tls)
  %9 = getelementptr inbounds nuw i8, ptr %8, i64 888
  %10 = load i8, ptr %9, align 8, !tbaa !11
  %.not.i = icmp eq i8 %10, 0
  br i1 %.not.i, label %tsd_fetch_impl.exit, label %11, !prof !10

11:                                               ; preds = %malloc_init.exit
  %12 = tail call ptr @je_tsd_fetch_slow(ptr noundef nonnull %8, i1 noundef zeroext false) #20
  br label %tsd_fetch_impl.exit

tsd_fetch_impl.exit:                              ; preds = %malloc_init.exit, %11
  %.0.i7 = phi ptr [ %12, %11 ], [ %8, %malloc_init.exit ]
  %13 = tail call i32 @je_ctl_nametomib(ptr noundef %.0.i7, ptr noundef %0, ptr noundef %1, ptr noundef %2) #20
  br label %malloc_init.exit.thread

malloc_init.exit.thread:                          ; preds = %6, %tsd_fetch_impl.exit
  %.0 = phi i32 [ %13, %tsd_fetch_impl.exit ], [ 11, %6 ]
  ret i32 %.0
}